target datalayout = "e-m:e-p270:32:32-p271:32:32-p272:64:64-i64:64-i128:128-f80:128-n8:16:32:64-S128"
target triple = "x86_64-pc-linux-gnu"

@_ZN11KnownIssuesC1Ev = unnamed_addr alias void (ptr), ptr @_ZN11KnownIssuesC2Ev

; Function Attrs: mustprogress uwtable
define ptr @udbg_knownIssue_open(ptr noundef %0, ptr noundef %1, ptr noundef %2, ptr noundef %3, ptr noundef %4, ptr noundef %5) #1 personality ptr @__gxx_personality_v0 {
  %7 = alloca ptr, align 8
  %8 = alloca ptr, align 8
  %9 = alloca ptr, align 8
  %10 = alloca ptr, align 8
  %11 = alloca ptr, align 8
  %12 = alloca ptr, align 8
  %13 = alloca ptr, align 8
  %14 = alloca ptr, align 8
  %15 = alloca i32, align 4
  store ptr %0, ptr %7, align 8, !tbaa !22
  store ptr %1, ptr %8, align 8, !tbaa !17
  store ptr %2, ptr %9, align 8, !tbaa !17
  store ptr %3, ptr %10, align 8, !tbaa !17
  store ptr %4, ptr %11, align 8, !tbaa !17
  store ptr %5, ptr %12, align 8, !tbaa !17
  call void @llvm.lifetime.start.p0(i64 8, ptr %13) #13
  %16 = load ptr, ptr %7, align 8, !tbaa !22
  store ptr %16, ptr %13, align 8, !tbaa !45
  %17 = load ptr, ptr %13, align 8, !tbaa !45
  %18 = icmp eq ptr %17, null
  br i1 %18, label %19, label %26

19:                                               ; preds = %6
  %20 = call noalias noundef nonnull ptr @_Znwm(i64 noundef 48) #23
  invoke void @_ZN11KnownIssuesC1Ev(ptr noundef nonnull align 8 dereferenceable(48) %20)
          to label %21 unwind label %22

21:                                               ; preds = %19
  store ptr %20, ptr %13, align 8, !tbaa !45
  br label %26

22:                                               ; preds = %19
  %23 = landingpad { ptr, i32 }
          cleanup
  %24 = extractvalue { ptr, i32 } %23, 0
  store ptr %24, ptr %14, align 8
  %25 = extractvalue { ptr, i32 } %23, 1
  store i32 %25, ptr %15, align 4
  call void @_ZdlPvm(ptr noundef %20, i64 noundef 48) #24
  call void @llvm.lifetime.end.p0(i64 8, ptr %13) #13
  br label %34

26:                                               ; preds = %21, %6
  %27 = load ptr, ptr %13, align 8, !tbaa !45
  %28 = load ptr, ptr %8, align 8, !tbaa !17
  %29 = load ptr, ptr %9, align 8, !tbaa !17
  %30 = load ptr, ptr %10, align 8, !tbaa !17
  %31 = load ptr, ptr %11, align 8, !tbaa !17
  %32 = load ptr, ptr %12, align 8, !tbaa !17
  call void @_ZN11KnownIssues3addEPKcS1_S1_PaS2_(ptr noundef nonnull align 8 dereferenceable(48) %27, ptr noundef %28, ptr noundef %29, ptr noundef %30, ptr noundef %31, ptr noundef %32)
  %33 = load ptr, ptr %13, align 8, !tbaa !45
  call void @llvm.lifetime.end.p0(i64 8, ptr %13) #13
  ret ptr %33

34:                                               ; preds = %22
  %35 = load ptr, ptr %14, align 8
  %36 = load i32, ptr %15, align 4
  %37 = insertvalue { ptr, i32 } poison, ptr %35, 0
  %38 = insertvalue { ptr, i32 } %37, i32 %36, 1
  resume { ptr, i32 } %38
}