; Function Attrs: mustprogress uwtable
define noundef nonnull ptr @udbg_knownIssue_open(ptr noundef %0, ptr noundef %1, ptr noundef %2, ptr noundef %3, ptr noundef %4, ptr noundef %5) local_unnamed_addr #1 personality ptr @__gxx_personality_v0 {
  %7 = icmp eq ptr %0, null
  br i1 %7, label %8, label %12

8:                                                ; preds = %6
  %9 = tail call noalias noundef nonnull dereferenceable(48) ptr @_Znwm(i64 noundef 48) #32
  invoke void @_ZN11KnownIssuesC1Ev(ptr noundef nonnull align 8 dereferenceable(48) %9)
          to label %12 unwind label %10

10:                                               ; preds = %8
  %11 = landingpad { ptr, i32 }
          cleanup
  tail call void @_ZdlPvm(ptr noundef nonnull %9, i64 noundef 48) #30
  resume { ptr, i32 } %11

12:                                               ; preds = %8, %6
  %.0 = phi ptr [ %0, %6 ], [ %9, %8 ]
  tail call void @_ZN11KnownIssues3addEPKcS1_S1_PaS2_(ptr noundef nonnull align 8 dereferenceable(48) %.0, ptr noundef %1, ptr noundef %2, ptr noundef %3, ptr noundef %4, ptr noundef %5)
  ret ptr %.0
}